target datalayout = "e-m:e-p270:32:32-p271:32:32-p272:64:64-i64:64-i128:128-f80:128-n8:16:32:64-S128"
target triple = "x86_64-pc-linux-gnu"

%"struct.cv::utils::trace::details::Region::LocationStaticStorage" = type { ptr, ptr, ptr, i32, i32 }
%"class.cv::utils::trace::details::Region" = type <{ ptr, i32, [4 x i8] }>
%"class.std::__cxx11::basic_string" = type { %"struct.std::__cxx11::basic_string<char>::_Alloc_hider", i64, %union.anon }
%"struct.std::__cxx11::basic_string<char>::_Alloc_hider" = type { ptr }
%union.anon = type { i64, [8 x i8] }

@.str.11 = private unnamed_addr constant [134 x i8] c"generated/home/dtcxzyw/WorkSpace/Projects/compilers/llvm-opt-benchmark/bench/opencv/opencv/modules/imgproc/src/color_rgb.dispatch.cpp\00", align 1
@_ZZN2cv3hal12cvtGraytoBGREPKhmPhmiiiiE25__cv_trace_location_fn318 = internal constant %"struct.cv::utils::trace::details::Region::LocationStaticStorage" { ptr @_ZZN2cv3hal12cvtGraytoBGREPKhmPhmiiiiE31__cv_trace_location_extra_fn318, ptr @.str.19, ptr @.str.11, i32 318, i32 1 }, align 8
@.str.20 = private unnamed_addr constant [77 x i8] c"HAL implementation cvtGraytoBGR ==> hal_ni_cvtGraytoBGR returned %d (0x%08x)\00", align 1
@__func__._ZN2cv3hal12cvtGraytoBGREPKhmPhmiiii = private unnamed_addr constant [13 x i8] c"cvtGraytoBGR\00", align 1

; Function Attrs: mustprogress nounwind uwtable
define linkonce_odr hidden noundef i32 @_Z19hal_ni_cvtGraytoBGRPKhmPhmiiii(ptr noundef %0, i64 noundef %1, ptr noundef %2, i64 noundef %3, i32 noundef %4, i32 noundef %5, i32 noundef %6, i32 noundef %7) #2 comdat {
  %9 = alloca ptr, align 8
  %10 = alloca i64, align 8
  %11 = alloca ptr, align 8
  %12 = alloca i64, align 8
  %13 = alloca i32, align 4
  %14 = alloca i32, align 4
  %15 = alloca i32, align 4
  %16 = alloca i32, align 4
  store ptr %0, ptr %9, align 8
  store i64 %1, ptr %10, align 8
  store ptr %2, ptr %11, align 8
  store i64 %3, ptr %12, align 8
  store i32 %4, ptr %13, align 4
  store i32 %5, ptr %14, align 4
  store i32 %6, ptr %15, align 4
  store i32 %7, ptr %16, align 4
  ret i32 1
}

; Function Attrs: mustprogress uwtable
define void @_ZN2cv3hal12cvtGraytoBGREPKhmPhmiiii(ptr noundef %0, i64 noundef %1, ptr noundef %2, i64 noundef %3, i32 noundef %4, i32 noundef %5, i32 noundef %6, i32 noundef %7) #0 personality ptr @__gxx_personality_v0 {
  %9 = alloca ptr, align 8
  %10 = alloca i64, align 8
  %11 = alloca ptr, align 8
  %12 = alloca i64, align 8
  %13 = alloca i32, align 4
  %14 = alloca i32, align 4
  %15 = alloca i32, align 4
  %16 = alloca i32, align 4
  %17 = alloca %"class.cv::utils::trace::details::Region", align 8
  %18 = alloca i32, align 4
  %19 = alloca ptr, align 8
  %20 = alloca i32, align 4
  %21 = alloca i32, align 4
  %22 = alloca %"class.std::__cxx11::basic_string", align 8
  store ptr %0, ptr %9, align 8
  store i64 %1, ptr %10, align 8
  store ptr %2, ptr %11, align 8
  store i64 %3, ptr %12, align 8
  store i32 %4, ptr %13, align 4
  store i32 %5, ptr %14, align 4
  store i32 %6, ptr %15, align 4
  store i32 %7, ptr %16, align 4
  call void @_ZN2cv5utils5trace7details6RegionC1ERKNS3_21LocationStaticStorageE(ptr noundef nonnull align 8 dereferenceable(12) %17, ptr noundef nonnull align 8 dereferenceable(32) @_ZZN2cv3hal12cvtGraytoBGREPKhmPhmiiiiE25__cv_trace_location_fn318)
  %23 = load ptr, ptr %9, align 8
  %24 = load i64, ptr %10, align 8
  %25 = load ptr, ptr %11, align 8
  %26 = load i64, ptr %12, align 8
  %27 = load i32, ptr %13, align 4
  %28 = load i32, ptr %14, align 4
  %29 = load i32, ptr %15, align 4
  %30 = load i32, ptr %16, align 4
  %31 = invoke noundef i32 @_Z19hal_ni_cvtGraytoBGRPKhmPhmiiii(ptr noundef %23, i64 noundef %24, ptr noundef %25, i64 noundef %26, i32 noundef %27, i32 noundef %28, i32 noundef %29, i32 noundef %30)
          to label %32 unwind label %36

32:                                               ; preds = %8
  store i32 %31, ptr %18, align 4
  %33 = load i32, ptr %18, align 4
  %34 = icmp eq i32 %33, 0
  br i1 %34, label %35, label %40

35:                                               ; preds = %32
  store i32 1, ptr %21, align 4
  br label %63

36:                                               ; preds = %53, %43, %8
  %37 = landingpad { ptr, i32 }
          cleanup
  %38 = extractvalue { ptr, i32 } %37, 0
  store ptr %38, ptr %19, align 8
  %39 = extractvalue { ptr, i32 } %37, 1
  store i32 %39, ptr %20, align 4
  br label %64

40:                                               ; preds = %32
  %41 = load i32, ptr %18, align 4
  %42 = icmp ne i32 %41, 1
  br i1 %42, label %43, label %52

43:                                               ; preds = %40
  %44 = load i32, ptr %18, align 4
  %45 = load i32, ptr %18, align 4
  invoke void (ptr, ptr, ...) @_ZN2cv6formatB5cxx11EPKcz(ptr dead_on_unwind writable sret(%"class.std::__cxx11::basic_string") align 8 %22, ptr noundef @.str.20, i32 noundef %44, i32 noundef %45)
          to label %46 unwind label %36

46:                                               ; preds = %43
  invoke void @_ZN2cv5errorEiRKNSt7__cxx1112basic_stringIcSt11char_traitsIcESaIcEEEPKcS9_i(i32 noundef -3, ptr noundef nonnull align 8 dereferenceable(32) %22, ptr noundef @__func__._ZN2cv3hal12cvtGraytoBGREPKhmPhmiiii, ptr noundef @.str.11, i32 noundef 320) #11
          to label %47 unwind label %48

47:                                               ; preds = %46
  unreachable

48:                                               ; preds = %46
  %49 = landingpad { ptr, i32 }
          cleanup
  %50 = extractvalue { ptr, i32 } %49, 0
  store ptr %50, ptr %19, align 8
  %51 = extractvalue { ptr, i32 } %49, 1
  store i32 %51, ptr %20, align 4
  call void @_ZNSt7__cxx1112basic_stringIcSt11char_traitsIcESaIcEED1Ev(ptr noundef nonnull align 8 dereferenceable(32) %22) #10
  br label %64

52:                                               ; preds = %40
  br label %53

53:                                               ; preds = %52
  %54 = load ptr, ptr %9, align 8
  %55 = load i64, ptr %10, align 8
  %56 = load ptr, ptr %11, align 8
  %57 = load i64, ptr %12, align 8
  %58 = load i32, ptr %13, align 4
  %59 = load i32, ptr %14, align 4
  %60 = load i32, ptr %15, align 4
  %61 = load i32, ptr %16, align 4
  invoke void @_ZN2cv3hal12cpu_baseline12cvtGraytoBGREPKhmPhmiiii(ptr noundef %54, i64 noundef %55, ptr noundef %56, i64 noundef %57, i32 noundef %58, i32 noundef %59, i32 noundef %60, i32 noundef %61)
          to label %62 unwind label %36

62:                                               ; preds = %53
  store i32 1, ptr %21, align 4
  br label %63

63:                                               ; preds = %62, %35
  call void @_ZN2cv5utils5trace7details6RegionD2Ev(ptr noundef nonnull align 8 dereferenceable(12) %17) #10
  ret void

64:                                               ; preds = %48, %36
  call void @_ZN2cv5utils5trace7details6RegionD2Ev(ptr noundef nonnull align 8 dereferenceable(12) %17) #10
  br label %65

65:                                               ; preds = %64
  %66 = load ptr, ptr %19, align 8
  %67 = load i32, ptr %20, align 4
  %68 = insertvalue { ptr, i32 } poison, ptr %66, 0
  %69 = insertvalue { ptr, i32 } %68, i32 %67, 1
  resume { ptr, i32 } %69
}